target datalayout = "e-m:e-p270:32:32-p271:32:32-p272:64:64-i64:64-i128:128-f80:128-n8:16:32:64-S128"
target triple = "x86_64-pc-linux-gnu"

%class.ShenandoahAllocationRate = type { double, i64, double, %class.TruncatedSeq, %class.TruncatedSeq }
%class.TruncatedSeq = type { %class.AbsSeq, ptr, i32, i32 }
%class.AbsSeq = type { ptr, i32, double, double, double, double, double }

@ShenandoahAdaptiveSampleFrequencyHz = external global i64, align 8
@ShenandoahAdaptiveSampleSizeSeconds = external global i64, align 8
@ShenandoahAdaptiveDecayFactor = external global double, align 8

; Function Attrs: mustprogress nounwind uwtable
define hidden void @_ZN24ShenandoahAllocationRateC2Ev(ptr noundef nonnull align 8 dereferenceable(168) %0) unnamed_addr #1 align 2 {
  %2 = alloca ptr, align 8
  store ptr %0, ptr %2, align 8
  %3 = load ptr, ptr %2, align 8
  %4 = getelementptr inbounds %class.ShenandoahAllocationRate, ptr %3, i32 0, i32 0
  %5 = call noundef double @_ZN2os11elapsedTimeEv()
  store double %5, ptr %4, align 8
  %6 = getelementptr inbounds %class.ShenandoahAllocationRate, ptr %3, i32 0, i32 1
  store i64 0, ptr %6, align 8
  %7 = getelementptr inbounds %class.ShenandoahAllocationRate, ptr %3, i32 0, i32 2
  %8 = load i64, ptr @ShenandoahAdaptiveSampleFrequencyHz, align 8
  %9 = uitofp i64 %8 to double
  %10 = fdiv double 1.000000e+00, %9
  store double %10, ptr %7, align 8
  %11 = getelementptr inbounds %class.ShenandoahAllocationRate, ptr %3, i32 0, i32 3
  %12 = load i64, ptr @ShenandoahAdaptiveSampleSizeSeconds, align 8
  %13 = load i64, ptr @ShenandoahAdaptiveSampleFrequencyHz, align 8
  %14 = mul i64 %12, %13
  %15 = trunc i64 %14 to i32
  %16 = load double, ptr @ShenandoahAdaptiveDecayFactor, align 8
  call void @_ZN12TruncatedSeqC1Eid(ptr noundef nonnull align 8 dereferenceable(72) %11, i32 noundef %15, double noundef %16)
  %17 = getelementptr inbounds %class.ShenandoahAllocationRate, ptr %3, i32 0, i32 4
  %18 = load i64, ptr @ShenandoahAdaptiveSampleSizeSeconds, align 8
  %19 = load i64, ptr @ShenandoahAdaptiveSampleFrequencyHz, align 8
  %20 = mul i64 %18, %19
  %21 = trunc i64 %20 to i32
  %22 = load double, ptr @ShenandoahAdaptiveDecayFactor, align 8
  call void @_ZN12TruncatedSeqC1Eid(ptr noundef nonnull align 8 dereferenceable(72) %17, i32 noundef %21, double noundef %22)
  ret void
}