; Function Attrs: mustprogress nounwind uwtable
define hidden void @_ZN24ShenandoahAllocationRateC2Ev(ptr noundef nonnull align 8 dereferenceable(168) %0) unnamed_addr #0 align 2 {
  %2 = tail call noundef double @_ZN2os11elapsedTimeEv() #11
  store double %2, ptr %0, align 8
  %3 = getelementptr inbounds i8, ptr %0, i64 8
  store i64 0, ptr %3, align 8
  %4 = getelementptr inbounds i8, ptr %0, i64 16
  %5 = load i64, ptr @ShenandoahAdaptiveSampleFrequencyHz, align 8
  %6 = uitofp i64 %5 to double
  %7 = fdiv double 1.000000e+00, %6
  store double %7, ptr %4, align 8
  %8 = getelementptr inbounds i8, ptr %0, i64 24
  %9 = load i64, ptr @ShenandoahAdaptiveSampleSizeSeconds, align 8
  %10 = mul i64 %9, %5
  %11 = trunc i64 %10 to i32
  %12 = load double, ptr @ShenandoahAdaptiveDecayFactor, align 8
  tail call void @_ZN12TruncatedSeqC1Eid(ptr noundef nonnull align 8 dereferenceable(72) %8, i32 noundef %11, double noundef %12) #11
  %13 = getelementptr inbounds i8, ptr %0, i64 96
  %14 = load i64, ptr @ShenandoahAdaptiveSampleSizeSeconds, align 8
  %15 = load i64, ptr @ShenandoahAdaptiveSampleFrequencyHz, align 8
  %16 = mul i64 %15, %14
  %17 = trunc i64 %16 to i32
  %18 = load double, ptr @ShenandoahAdaptiveDecayFactor, align 8
  tail call void @_ZN12TruncatedSeqC1Eid(ptr noundef nonnull align 8 dereferenceable(72) %13, i32 noundef %17, double noundef %18) #11
  ret void
}